target datalayout = "e-m:e-p270:32:32-p271:32:32-p272:64:64-i64:64-i128:128-f80:128-n8:16:32:64-S128"
target triple = "x86_64-pc-linux-gnu"

; Function Attrs: nounwind uwtable
define dso_local i64 @Curl_mime_read(ptr noundef %0, i64 noundef %1, i64 noundef %2, ptr noundef %3) #0 {
  %5 = alloca ptr, align 8
  %6 = alloca i64, align 8
  %7 = alloca i64, align 8
  %8 = alloca ptr, align 8
  %9 = alloca ptr, align 8
  %10 = alloca i64, align 8
  %11 = alloca i8, align 1
  store ptr %0, ptr %5, align 8, !tbaa !49
  store i64 %1, ptr %6, align 8, !tbaa !50
  store i64 %2, ptr %7, align 8, !tbaa !50
  store ptr %3, ptr %8, align 8, !tbaa !22
  call void @llvm.lifetime.start.p0(i64 8, ptr %9) #8
  %12 = load ptr, ptr %8, align 8, !tbaa !22
  store ptr %12, ptr %9, align 8, !tbaa !4
  call void @llvm.lifetime.start.p0(i64 8, ptr %10) #8
  call void @llvm.lifetime.start.p0(i64 1, ptr %11) #8
  br label %13

13:                                               ; preds = %18, %4
  store i8 0, ptr %11, align 1, !tbaa !70
  %14 = load ptr, ptr %9, align 8, !tbaa !4
  %15 = load ptr, ptr %5, align 8, !tbaa !49
  %16 = load i64, ptr %7, align 8, !tbaa !50
  %17 = call i64 @readback_part(ptr noundef %14, ptr noundef %15, i64 noundef %16, ptr noundef %11)
  store i64 %17, ptr %10, align 8, !tbaa !50
  br label %18

18:                                               ; preds = %13
  %19 = load i64, ptr %10, align 8, !tbaa !50
  %20 = icmp eq i64 %19, -2
  br i1 %20, label %13, label %21, !llvm.loop !72

21:                                               ; preds = %18
  %22 = load i64, ptr %10, align 8, !tbaa !50
  call void @llvm.lifetime.end.p0(i64 1, ptr %11) #8
  call void @llvm.lifetime.end.p0(i64 8, ptr %10) #8
  call void @llvm.lifetime.end.p0(i64 8, ptr %9) #8
  ret i64 %22
}