; Function Attrs: nounwind uwtable
define dso_local range(i64 -1, -2) i64 @Curl_mime_read(ptr noundef %0, i64 noundef %1, i64 noundef %2, ptr noundef %3) local_unnamed_addr #0 {
  %5 = alloca i8, align 1
  call void @llvm.lifetime.start.p0(i64 1, ptr nonnull %5) #18
  br label %6

6:                                                ; preds = %6, %4
  store i8 0, ptr %5, align 1, !tbaa !59
  %7 = call fastcc i64 @readback_part(ptr noundef %3, ptr noundef %0, i64 noundef %2, ptr noundef %5)
  %8 = icmp eq i64 %7, -2
  br i1 %8, label %6, label %9, !llvm.loop !61

9:                                                ; preds = %6
  call void @llvm.lifetime.end.p0(i64 1, ptr nonnull %5) #18
  ret i64 %7
}